; Function Attrs: mustprogress nofree norecurse nosync nounwind willreturn memory(read, inaccessiblemem: none) uwtable
define nonnull ptr @l_Lean_FileMap_getLastLine(ptr noundef readonly captures(none) %0) local_unnamed_addr #3 {
lean_dec.exit:
  %1 = getelementptr inbounds nuw i8, ptr %0, i64 16
  %2 = load ptr, ptr %1, align 8, !tbaa !4
  %3 = getelementptr i8, ptr %2, i64 8
  %.val = load i64, ptr %3, align 8, !tbaa !13
  %4 = and i64 %.val, 9223372036854775807
  %5 = icmp eq i64 %4, 0
  %6 = shl i64 %.val, 1
  %7 = add i64 %6, -1
  %8 = inttoptr i64 %7 to ptr
  %.1.i = select i1 %5, ptr inttoptr (i64 1 to ptr), ptr %8
  ret ptr %.1.i
}